; Function Attrs: nofree norecurse nosync nounwind memory(argmem: read) uwtable
define dso_local range(i32 -255, 256) i32 @onig_strncmp(ptr noundef readonly captures(none) %0, ptr noundef readonly captures(none) %1, i32 noundef %2) local_unnamed_addr #4 {
  br label %4

4:                                                ; preds = %6, %3
  %.07 = phi ptr [ %0, %3 ], [ %11, %6 ]
  %.06 = phi ptr [ %1, %3 ], [ %8, %6 ]
  %.05 = phi i32 [ %2, %3 ], [ %7, %6 ]
  %5 = icmp sgt i32 %.05, 0
  br i1 %5, label %6, label %15

6:                                                ; preds = %4
  %7 = add nsw i32 %.05, -1
  %8 = getelementptr inbounds nuw i8, ptr %.06, i64 1
  %9 = load i8, ptr %.06, align 1, !tbaa !10
  %10 = zext i8 %9 to i32
  %11 = getelementptr inbounds nuw i8, ptr %.07, i64 1
  %12 = load i8, ptr %.07, align 1, !tbaa !10
  %13 = zext i8 %12 to i32
  %14 = sub nsw i32 %10, %13
  %.not = icmp eq i32 %14, 0
  br i1 %.not, label %4, label %15, !llvm.loop !11

15:                                               ; preds = %4, %6
  %.0 = phi i32 [ %14, %6 ], [ 0, %4 ]
  ret i32 %.0
}